target datalayout = "e-m:e-p270:32:32-p271:32:32-p272:64:64-i64:64-i128:128-f80:128-n8:16:32:64-S128"
target triple = "x86_64-pc-linux-gnu"

%struct.mspack_system = type { ptr, ptr, ptr, ptr, ptr, ptr, ptr, ptr, ptr, ptr, ptr }
%struct.mscab_decompressor_p = type { %struct.mscab_decompressor, ptr, ptr, i32, i32, i32, i32, i32, i32 }
%struct.mscab_decompressor = type { ptr, ptr, ptr, ptr, ptr, ptr, ptr, ptr }
%struct.mscabd_cabinet_p = type { %struct.mscabd_cabinet, i64, i32 }
%struct.mscabd_cabinet = type { ptr, ptr, i64, i32, ptr, ptr, ptr, ptr, ptr, ptr, ptr, ptr, i16, i16, i16, i32 }

; Function Attrs: nounwind uwtable
define internal ptr @cabd_open(ptr noundef %0, ptr noundef %1) #0 {
  %3 = alloca ptr, align 8
  %4 = alloca ptr, align 8
  %5 = alloca ptr, align 8
  %6 = alloca ptr, align 8
  %7 = alloca ptr, align 8
  %8 = alloca ptr, align 8
  %9 = alloca ptr, align 8
  %10 = alloca i32, align 4
  %11 = alloca i32, align 4
  store ptr %0, ptr %4, align 8, !tbaa !31
  store ptr %1, ptr %5, align 8, !tbaa !33
  call void @llvm.lifetime.start.p0(i64 8, ptr %6) #4
  %12 = load ptr, ptr %4, align 8, !tbaa !31
  store ptr %12, ptr %6, align 8, !tbaa !8
  call void @llvm.lifetime.start.p0(i64 8, ptr %7) #4
  store ptr null, ptr %7, align 8, !tbaa !35
  call void @llvm.lifetime.start.p0(i64 8, ptr %8) #4
  call void @llvm.lifetime.start.p0(i64 8, ptr %9) #4
  call void @llvm.lifetime.start.p0(i64 4, ptr %10) #4
  %13 = load ptr, ptr %4, align 8, !tbaa !31
  %14 = icmp ne ptr %13, null
  br i1 %14, label %16, label %15

15:                                               ; preds = %2
  store ptr null, ptr %3, align 8
  store i32 1, ptr %11, align 4
  br label %68

16:                                               ; preds = %2
  %17 = load ptr, ptr %6, align 8, !tbaa !8
  %18 = getelementptr inbounds nuw %struct.mscab_decompressor_p, ptr %17, i32 0, i32 2
  %19 = load ptr, ptr %18, align 8, !tbaa !24
  store ptr %19, ptr %8, align 8, !tbaa !3
  %20 = load ptr, ptr %8, align 8, !tbaa !3
  %21 = getelementptr inbounds nuw %struct.mspack_system, ptr %20, i32 0, i32 0
  %22 = load ptr, ptr %21, align 8, !tbaa !37
  %23 = load ptr, ptr %8, align 8, !tbaa !3
  %24 = load ptr, ptr %5, align 8, !tbaa !33
  %25 = call ptr %22(ptr noundef %23, ptr noundef %24, i32 noundef 0)
  store ptr %25, ptr %9, align 8, !tbaa !38
  %26 = icmp ne ptr %25, null
  br i1 %26, label %27, label %63

27:                                               ; preds = %16
  %28 = load ptr, ptr %8, align 8, !tbaa !3
  %29 = getelementptr inbounds nuw %struct.mspack_system, ptr %28, i32 0, i32 7
  %30 = load ptr, ptr %29, align 8, !tbaa !10
  %31 = load ptr, ptr %8, align 8, !tbaa !3
  %32 = call ptr %30(ptr noundef %31, i64 noundef 128)
  store ptr %32, ptr %7, align 8, !tbaa !35
  %33 = icmp ne ptr %32, null
  br i1 %33, label %34, label %55

34:                                               ; preds = %27
  %35 = load ptr, ptr %5, align 8, !tbaa !33
  %36 = load ptr, ptr %7, align 8, !tbaa !35
  %37 = getelementptr inbounds nuw %struct.mscabd_cabinet_p, ptr %36, i32 0, i32 0
  %38 = getelementptr inbounds nuw %struct.mscabd_cabinet, ptr %37, i32 0, i32 1
  store ptr %35, ptr %38, align 8, !tbaa !40
  %39 = load ptr, ptr %8, align 8, !tbaa !3
  %40 = load ptr, ptr %9, align 8, !tbaa !38
  %41 = load ptr, ptr %7, align 8, !tbaa !35
  %42 = load ptr, ptr %6, align 8, !tbaa !8
  %43 = getelementptr inbounds nuw %struct.mscab_decompressor_p, ptr %42, i32 0, i32 6
  %44 = load i32, ptr %43, align 4, !tbaa !30
  %45 = call i32 @cabd_read_headers(ptr noundef %39, ptr noundef %40, ptr noundef %41, i64 noundef 0, i32 noundef %44, i32 noundef 0)
  store i32 %45, ptr %10, align 4, !tbaa !48
  %46 = load i32, ptr %10, align 4, !tbaa !48
  %47 = icmp ne i32 %46, 0
  br i1 %47, label %48, label %51

48:                                               ; preds = %34
  %49 = load ptr, ptr %4, align 8, !tbaa !31
  %50 = load ptr, ptr %7, align 8, !tbaa !35
  call void @cabd_close(ptr noundef %49, ptr noundef %50)
  store ptr null, ptr %7, align 8, !tbaa !35
  br label %51

51:                                               ; preds = %48, %34
  %52 = load i32, ptr %10, align 4, !tbaa !48
  %53 = load ptr, ptr %6, align 8, !tbaa !8
  %54 = getelementptr inbounds nuw %struct.mscab_decompressor_p, ptr %53, i32 0, i32 7
  store i32 %52, ptr %54, align 8, !tbaa !26
  br label %58

55:                                               ; preds = %27
  %56 = load ptr, ptr %6, align 8, !tbaa !8
  %57 = getelementptr inbounds nuw %struct.mscab_decompressor_p, ptr %56, i32 0, i32 7
  store i32 6, ptr %57, align 8, !tbaa !26
  br label %58

58:                                               ; preds = %55, %51
  %59 = load ptr, ptr %8, align 8, !tbaa !3
  %60 = getelementptr inbounds nuw %struct.mspack_system, ptr %59, i32 0, i32 1
  %61 = load ptr, ptr %60, align 8, !tbaa !49
  %62 = load ptr, ptr %9, align 8, !tbaa !38
  call void %61(ptr noundef %62)
  br label %66

63:                                               ; preds = %16
  %64 = load ptr, ptr %6, align 8, !tbaa !8
  %65 = getelementptr inbounds nuw %struct.mscab_decompressor_p, ptr %64, i32 0, i32 7
  store i32 2, ptr %65, align 8, !tbaa !26
  br label %66

66:                                               ; preds = %63, %58
  %67 = load ptr, ptr %7, align 8, !tbaa !35
  store ptr %67, ptr %3, align 8
  store i32 1, ptr %11, align 4
  br label %68

68:                                               ; preds = %66, %15
  call void @llvm.lifetime.end.p0(i64 4, ptr %10) #4
  call void @llvm.lifetime.end.p0(i64 8, ptr %9) #4
  call void @llvm.lifetime.end.p0(i64 8, ptr %8) #4
  call void @llvm.lifetime.end.p0(i64 8, ptr %7) #4
  call void @llvm.lifetime.end.p0(i64 8, ptr %6) #4
  %69 = load ptr, ptr %3, align 8
  ret ptr %69
}