; Function Attrs: nounwind uwtable
define internal ptr @cabd_open(ptr noundef %0, ptr noundef %1) #0 {
  %.not = icmp eq ptr %0, null
  br i1 %.not, label %24, label %3

3:                                                ; preds = %2
  %4 = getelementptr inbounds nuw i8, ptr %0, i64 72
  %5 = load ptr, ptr %4, align 8, !tbaa !21
  %6 = load ptr, ptr %5, align 8, !tbaa !28
  %7 = tail call ptr %6(ptr noundef nonnull %5, ptr noundef %1, i32 noundef 0) #8
  %.not29 = icmp eq ptr %7, null
  br i1 %.not29, label %22, label %8

8:                                                ; preds = %3
  %9 = getelementptr inbounds nuw i8, ptr %5, i64 56
  %10 = load ptr, ptr %9, align 8, !tbaa !3
  %11 = tail call ptr %10(ptr noundef nonnull %5, i64 noundef 128) #8
  %.not30 = icmp eq ptr %11, null
  br i1 %.not30, label %18, label %12

12:                                               ; preds = %8
  %13 = getelementptr inbounds nuw i8, ptr %11, i64 8
  store ptr %1, ptr %13, align 8, !tbaa !29
  %14 = getelementptr inbounds nuw i8, ptr %0, i64 92
  %15 = load i32, ptr %14, align 4, !tbaa !27
  %16 = tail call fastcc i32 @cabd_read_headers(ptr noundef nonnull %5, ptr noundef %7, ptr noundef %11, i64 noundef 0, i32 noundef %15, i32 noundef 0)
  %.not31 = icmp eq i32 %16, 0
  br i1 %.not31, label %18, label %17

17:                                               ; preds = %12
  tail call void @cabd_close(ptr noundef nonnull %0, ptr noundef nonnull %11)
  br label %18

18:                                               ; preds = %8, %12, %17
  %.sink = phi i32 [ %16, %17 ], [ %16, %12 ], [ 6, %8 ]
  %.1 = phi ptr [ null, %17 ], [ %11, %12 ], [ null, %8 ]
  %19 = getelementptr inbounds nuw i8, ptr %0, i64 96
  store i32 %.sink, ptr %19, align 8, !tbaa !23
  %20 = getelementptr inbounds nuw i8, ptr %5, i64 8
  %21 = load ptr, ptr %20, align 8, !tbaa !38
  tail call void %21(ptr noundef nonnull %7) #8
  br label %24

22:                                               ; preds = %3
  %23 = getelementptr inbounds nuw i8, ptr %0, i64 96
  store i32 2, ptr %23, align 8, !tbaa !23
  br label %24

24:                                               ; preds = %18, %22, %2
  %.0 = phi ptr [ null, %2 ], [ %.1, %18 ], [ null, %22 ]
  ret ptr %.0
}